; Function Attrs: mustprogress uwtable
define noundef zeroext i1 @_ZN5draco17PointCloudDecoder19DecodeAllAttributesEv(ptr nocapture noundef nonnull readonly align 8 dereferenceable(88) %0) unnamed_addr #4 align 2 {
  %2 = getelementptr inbounds i8, ptr %0, i64 16
  %3 = load ptr, ptr %2, align 8
  %4 = getelementptr inbounds i8, ptr %0, i64 24
  %5 = load ptr, ptr %4, align 8
  %.not8 = icmp eq ptr %3, %5
  br i1 %.not8, label %._crit_edge, label %.lr.ph

.lr.ph:                                           ; preds = %1
  %6 = getelementptr inbounds i8, ptr %0, i64 64
  br label %7

7:                                                ; preds = %7, %.lr.ph
  %.sroa.05.09 = phi ptr [ %3, %.lr.ph ], [ %14, %7 ]
  %8 = load ptr, ptr %.sroa.05.09, align 8
  %9 = load ptr, ptr %6, align 8
  %10 = load ptr, ptr %8, align 8
  %11 = getelementptr inbounds i8, ptr %10, i64 32
  %12 = load ptr, ptr %11, align 8
  %13 = tail call noundef zeroext i1 %12(ptr noundef nonnull align 8 dereferenceable(8) %8, ptr noundef %9)
  %14 = getelementptr inbounds i8, ptr %.sroa.05.09, i64 8
  %.not = icmp ne ptr %14, %5
  %or.cond.not = select i1 %13, i1 %.not, i1 false
  br i1 %or.cond.not, label %7, label %._crit_edge

._crit_edge:                                      ; preds = %7, %1
  %.not.lcssa = phi i1 [ true, %1 ], [ %13, %7 ]
  ret i1 %.not.lcssa
}